target datalayout = "e-m:e-p270:32:32-p271:32:32-p272:64:64-i64:64-i128:128-f80:128-n8:16:32:64-S128"
target triple = "x86_64-pc-linux-gnu"

%struct.bignum_st = type { ptr, i32, i32, i32, i32 }

; Function Attrs: nounwind uwtable
define i32 @BN_uadd(ptr noundef %0, ptr noundef %1, ptr noundef %2) #0 {
  %4 = alloca i32, align 4
  %5 = alloca ptr, align 8
  %6 = alloca ptr, align 8
  %7 = alloca ptr, align 8
  %8 = alloca i32, align 4
  %9 = alloca i32, align 4
  %10 = alloca i32, align 4
  %11 = alloca ptr, align 8
  %12 = alloca ptr, align 8
  %13 = alloca ptr, align 8
  %14 = alloca i64, align 8
  %15 = alloca i64, align 8
  %16 = alloca i64, align 8
  %17 = alloca ptr, align 8
  %18 = alloca i32, align 4
  store ptr %0, ptr %5, align 8, !tbaa !3
  store ptr %1, ptr %6, align 8, !tbaa !3
  store ptr %2, ptr %7, align 8, !tbaa !3
  call void @llvm.lifetime.start.p0(i64 4, ptr %8) #3
  call void @llvm.lifetime.start.p0(i64 4, ptr %9) #3
  call void @llvm.lifetime.start.p0(i64 4, ptr %10) #3
  call void @llvm.lifetime.start.p0(i64 8, ptr %11) #3
  call void @llvm.lifetime.start.p0(i64 8, ptr %12) #3
  call void @llvm.lifetime.start.p0(i64 8, ptr %13) #3
  call void @llvm.lifetime.start.p0(i64 8, ptr %14) #3
  call void @llvm.lifetime.start.p0(i64 8, ptr %15) #3
  call void @llvm.lifetime.start.p0(i64 8, ptr %16) #3
  %19 = load ptr, ptr %6, align 8, !tbaa !3
  %20 = getelementptr inbounds nuw %struct.bignum_st, ptr %19, i32 0, i32 1
  %21 = load i32, ptr %20, align 8, !tbaa !13
  %22 = load ptr, ptr %7, align 8, !tbaa !3
  %23 = getelementptr inbounds nuw %struct.bignum_st, ptr %22, i32 0, i32 1
  %24 = load i32, ptr %23, align 8, !tbaa !13
  %25 = icmp slt i32 %21, %24
  br i1 %25, label %26, label %30

26:                                               ; preds = %3
  call void @llvm.lifetime.start.p0(i64 8, ptr %17) #3
  %27 = load ptr, ptr %6, align 8, !tbaa !3
  store ptr %27, ptr %17, align 8, !tbaa !3
  %28 = load ptr, ptr %7, align 8, !tbaa !3
  store ptr %28, ptr %6, align 8, !tbaa !3
  %29 = load ptr, ptr %17, align 8, !tbaa !3
  store ptr %29, ptr %7, align 8, !tbaa !3
  call void @llvm.lifetime.end.p0(i64 8, ptr %17) #3
  br label %30

30:                                               ; preds = %26, %3
  %31 = load ptr, ptr %6, align 8, !tbaa !3
  %32 = getelementptr inbounds nuw %struct.bignum_st, ptr %31, i32 0, i32 1
  %33 = load i32, ptr %32, align 8, !tbaa !13
  store i32 %33, ptr %8, align 4, !tbaa !12
  %34 = load ptr, ptr %7, align 8, !tbaa !3
  %35 = getelementptr inbounds nuw %struct.bignum_st, ptr %34, i32 0, i32 1
  %36 = load i32, ptr %35, align 8, !tbaa !13
  store i32 %36, ptr %9, align 4, !tbaa !12
  %37 = load i32, ptr %8, align 4, !tbaa !12
  %38 = load i32, ptr %9, align 4, !tbaa !12
  %39 = sub nsw i32 %37, %38
  store i32 %39, ptr %10, align 4, !tbaa !12
  %40 = load ptr, ptr %5, align 8, !tbaa !3
  %41 = load i32, ptr %8, align 4, !tbaa !12
  %42 = add nsw i32 %41, 1
  %43 = call ptr @bn_wexpand(ptr noundef %40, i32 noundef %42)
  %44 = icmp eq ptr %43, null
  br i1 %44, label %45, label %46

45:                                               ; preds = %30
  store i32 0, ptr %4, align 4
  store i32 1, ptr %18, align 4
  br label %106

46:                                               ; preds = %30
  %47 = load i32, ptr %8, align 4, !tbaa !12
  %48 = load ptr, ptr %5, align 8, !tbaa !3
  %49 = getelementptr inbounds nuw %struct.bignum_st, ptr %48, i32 0, i32 1
  store i32 %47, ptr %49, align 8, !tbaa !13
  %50 = load ptr, ptr %6, align 8, !tbaa !3
  %51 = getelementptr inbounds nuw %struct.bignum_st, ptr %50, i32 0, i32 0
  %52 = load ptr, ptr %51, align 8, !tbaa !14
  store ptr %52, ptr %11, align 8, !tbaa !15
  %53 = load ptr, ptr %7, align 8, !tbaa !3
  %54 = getelementptr inbounds nuw %struct.bignum_st, ptr %53, i32 0, i32 0
  %55 = load ptr, ptr %54, align 8, !tbaa !14
  store ptr %55, ptr %12, align 8, !tbaa !15
  %56 = load ptr, ptr %5, align 8, !tbaa !3
  %57 = getelementptr inbounds nuw %struct.bignum_st, ptr %56, i32 0, i32 0
  %58 = load ptr, ptr %57, align 8, !tbaa !14
  store ptr %58, ptr %13, align 8, !tbaa !15
  %59 = load ptr, ptr %13, align 8, !tbaa !15
  %60 = load ptr, ptr %11, align 8, !tbaa !15
  %61 = load ptr, ptr %12, align 8, !tbaa !15
  %62 = load i32, ptr %9, align 4, !tbaa !12
  %63 = call i64 @bn_add_words(ptr noundef %59, ptr noundef %60, ptr noundef %61, i32 noundef %62)
  store i64 %63, ptr %14, align 8, !tbaa !16
  %64 = load i32, ptr %9, align 4, !tbaa !12
  %65 = load ptr, ptr %13, align 8, !tbaa !15
  %66 = sext i32 %64 to i64
  %67 = getelementptr inbounds i64, ptr %65, i64 %66
  store ptr %67, ptr %13, align 8, !tbaa !15
  %68 = load i32, ptr %9, align 4, !tbaa !12
  %69 = load ptr, ptr %11, align 8, !tbaa !15
  %70 = sext i32 %68 to i64
  %71 = getelementptr inbounds i64, ptr %69, i64 %70
  store ptr %71, ptr %11, align 8, !tbaa !15
  br label %72

72:                                               ; preds = %75, %46
  %73 = load i32, ptr %10, align 4, !tbaa !12
  %74 = icmp ne i32 %73, 0
  br i1 %74, label %75, label %94

75:                                               ; preds = %72
  %76 = load i32, ptr %10, align 4, !tbaa !12
  %77 = add nsw i32 %76, -1
  store i32 %77, ptr %10, align 4, !tbaa !12
  %78 = load ptr, ptr %11, align 8, !tbaa !15
  %79 = getelementptr inbounds nuw i64, ptr %78, i32 1
  store ptr %79, ptr %11, align 8, !tbaa !15
  %80 = load i64, ptr %78, align 8, !tbaa !16
  store i64 %80, ptr %15, align 8, !tbaa !16
  %81 = load i64, ptr %15, align 8, !tbaa !16
  %82 = load i64, ptr %14, align 8, !tbaa !16
  %83 = add i64 %81, %82
  %84 = and i64 %83, -1
  store i64 %84, ptr %16, align 8, !tbaa !16
  %85 = load i64, ptr %16, align 8, !tbaa !16
  %86 = load ptr, ptr %13, align 8, !tbaa !15
  %87 = getelementptr inbounds nuw i64, ptr %86, i32 1
  store ptr %87, ptr %13, align 8, !tbaa !15
  store i64 %85, ptr %86, align 8, !tbaa !16
  %88 = load i64, ptr %16, align 8, !tbaa !16
  %89 = icmp eq i64 %88, 0
  %90 = zext i1 %89 to i32
  %91 = sext i32 %90 to i64
  %92 = load i64, ptr %14, align 8, !tbaa !16
  %93 = and i64 %92, %91
  store i64 %93, ptr %14, align 8, !tbaa !16
  br label %72, !llvm.loop !18

94:                                               ; preds = %72
  %95 = load i64, ptr %14, align 8, !tbaa !16
  %96 = load ptr, ptr %13, align 8, !tbaa !15
  store i64 %95, ptr %96, align 8, !tbaa !16
  %97 = load i64, ptr %14, align 8, !tbaa !16
  %98 = load ptr, ptr %5, align 8, !tbaa !3
  %99 = getelementptr inbounds nuw %struct.bignum_st, ptr %98, i32 0, i32 1
  %100 = load i32, ptr %99, align 8, !tbaa !13
  %101 = sext i32 %100 to i64
  %102 = add i64 %101, %97
  %103 = trunc i64 %102 to i32
  store i32 %103, ptr %99, align 8, !tbaa !13
  %104 = load ptr, ptr %5, align 8, !tbaa !3
  %105 = getelementptr inbounds nuw %struct.bignum_st, ptr %104, i32 0, i32 3
  store i32 0, ptr %105, align 8, !tbaa !8
  store i32 1, ptr %4, align 4
  store i32 1, ptr %18, align 4
  br label %106

106:                                              ; preds = %94, %45
  call void @llvm.lifetime.end.p0(i64 8, ptr %16) #3
  call void @llvm.lifetime.end.p0(i64 8, ptr %15) #3
  call void @llvm.lifetime.end.p0(i64 8, ptr %14) #3
  call void @llvm.lifetime.end.p0(i64 8, ptr %13) #3
  call void @llvm.lifetime.end.p0(i64 8, ptr %12) #3
  call void @llvm.lifetime.end.p0(i64 8, ptr %11) #3
  call void @llvm.lifetime.end.p0(i64 4, ptr %10) #3
  call void @llvm.lifetime.end.p0(i64 4, ptr %9) #3
  call void @llvm.lifetime.end.p0(i64 4, ptr %8) #3
  %107 = load i32, ptr %4, align 4
  ret i32 %107
}