; Function Attrs: nounwind uwtable
define range(i32 0, 2) i32 @BN_uadd(ptr noundef %0, ptr noundef readonly captures(none) %1, ptr noundef readonly captures(none) %2) local_unnamed_addr #0 {
  %4 = getelementptr inbounds nuw i8, ptr %1, i64 8
  %5 = load i32, ptr %4, align 8, !tbaa !10
  %6 = getelementptr inbounds nuw i8, ptr %2, i64 8
  %7 = load i32, ptr %6, align 8, !tbaa !10
  %8 = icmp slt i32 %5, %7
  %spec.select = select i1 %8, ptr %1, ptr %2
  %spec.select44 = select i1 %8, ptr %2, ptr %1
  %9 = getelementptr inbounds nuw i8, ptr %spec.select44, i64 8
  %10 = load i32, ptr %9, align 8, !tbaa !10
  %11 = getelementptr inbounds nuw i8, ptr %spec.select, i64 8
  %12 = load i32, ptr %11, align 8, !tbaa !10
  %13 = add nsw i32 %10, 1
  %14 = tail call ptr @bn_wexpand(ptr noundef %0, i32 noundef %13) #2
  %15 = icmp eq ptr %14, null
  br i1 %15, label %38, label %16

16:                                               ; preds = %3
  %17 = sub nsw i32 %10, %12
  %18 = getelementptr inbounds nuw i8, ptr %0, i64 8
  store i32 %10, ptr %18, align 8, !tbaa !10
  %19 = load ptr, ptr %spec.select44, align 8, !tbaa !11
  %20 = load ptr, ptr %spec.select, align 8, !tbaa !11
  %21 = load ptr, ptr %0, align 8, !tbaa !11
  %22 = tail call i64 @bn_add_words(ptr noundef %21, ptr noundef %19, ptr noundef %20, i32 noundef %12) #2
  %23 = sext i32 %12 to i64
  %24 = getelementptr inbounds i64, ptr %21, i64 %23
  %.not45 = icmp eq i32 %17, 0
  br i1 %.not45, label %._crit_edge, label %.lr.ph.preheader

.lr.ph.preheader:                                 ; preds = %16
  %25 = getelementptr inbounds i64, ptr %19, i64 %23
  br label %.lr.ph

.lr.ph:                                           ; preds = %.lr.ph.preheader, %.lr.ph
  %.04049 = phi i64 [ %33, %.lr.ph ], [ %22, %.lr.ph.preheader ]
  %.04148 = phi ptr [ %30, %.lr.ph ], [ %24, %.lr.ph.preheader ]
  %.04247 = phi i32 [ %26, %.lr.ph ], [ %17, %.lr.ph.preheader ]
  %.04346 = phi ptr [ %27, %.lr.ph ], [ %25, %.lr.ph.preheader ]
  %26 = add nsw i32 %.04247, -1
  %27 = getelementptr inbounds nuw i8, ptr %.04346, i64 8
  %28 = load i64, ptr %.04346, align 8, !tbaa !12
  %29 = add i64 %28, %.04049
  %30 = getelementptr inbounds nuw i8, ptr %.04148, i64 8
  store i64 %29, ptr %.04148, align 8, !tbaa !12
  %31 = icmp eq i64 %29, 0
  %32 = and i64 %.04049, 1
  %33 = select i1 %31, i64 %32, i64 0
  %.not = icmp eq i32 %26, 0
  br i1 %.not, label %._crit_edge, label %.lr.ph, !llvm.loop !14

._crit_edge:                                      ; preds = %.lr.ph, %16
  %.041.lcssa = phi ptr [ %24, %16 ], [ %30, %.lr.ph ]
  %.040.lcssa = phi i64 [ %22, %16 ], [ %33, %.lr.ph ]
  store i64 %.040.lcssa, ptr %.041.lcssa, align 8, !tbaa !12
  %34 = load i32, ptr %18, align 8, !tbaa !10
  %35 = trunc i64 %.040.lcssa to i32
  %36 = add i32 %34, %35
  store i32 %36, ptr %18, align 8, !tbaa !10
  %37 = getelementptr inbounds nuw i8, ptr %0, i64 16
  store i32 0, ptr %37, align 8, !tbaa !3
  br label %38

38:                                               ; preds = %3, %._crit_edge
  %.0 = phi i32 [ 1, %._crit_edge ], [ 0, %3 ]
  ret i32 %.0
}